target datalayout = "e-m:e-p270:32:32-p271:32:32-p272:64:64-i64:64-i128:128-f80:128-n8:16:32:64-S128"
target triple = "x86_64-pc-linux-gnu"

%"class.draco::DecoderBuffer" = type <{ ptr, i64, i64, %"class.draco::DecoderBuffer::BitDecoder", i8, i8, i16, [4 x i8] }>
%"class.draco::DecoderBuffer::BitDecoder" = type { ptr, ptr, i64 }

@_ZN5draco13DecoderBuffer10BitDecoderC1Ev = unnamed_addr alias void (ptr), ptr @_ZN5draco13DecoderBuffer10BitDecoderC2Ev

; Function Attrs: mustprogress uwtable
define void @_ZN5draco13DecoderBufferC2Ev(ptr noundef nonnull align 8 dereferenceable(52) %0) unnamed_addr #4 align 2 {
  %2 = alloca ptr, align 8
  store ptr %0, ptr %2, align 8, !tbaa !3
  %3 = load ptr, ptr %2, align 8
  %4 = getelementptr inbounds nuw %"class.draco::DecoderBuffer", ptr %3, i32 0, i32 0
  store ptr null, ptr %4, align 8, !tbaa !8
  %5 = getelementptr inbounds nuw %"class.draco::DecoderBuffer", ptr %3, i32 0, i32 1
  store i64 0, ptr %5, align 8, !tbaa !15
  %6 = getelementptr inbounds nuw %"class.draco::DecoderBuffer", ptr %3, i32 0, i32 2
  store i64 0, ptr %6, align 8, !tbaa !16
  %7 = getelementptr inbounds nuw %"class.draco::DecoderBuffer", ptr %3, i32 0, i32 3
  call void @_ZN5draco13DecoderBuffer10BitDecoderC1Ev(ptr noundef nonnull align 8 dereferenceable(24) %7)
  %8 = getelementptr inbounds nuw %"class.draco::DecoderBuffer", ptr %3, i32 0, i32 4
  store i8 0, ptr %8, align 8, !tbaa !17
  %9 = getelementptr inbounds nuw %"class.draco::DecoderBuffer", ptr %3, i32 0, i32 6
  store i16 0, ptr %9, align 2, !tbaa !18
  ret void
}