; Function Attrs: mustprogress uwtable
define void @_ZN5draco13DecoderBufferC2Ev(ptr noundef nonnull align 8 dereferenceable(52) initializes((0, 24)) %0) unnamed_addr #3 align 2 {
  %2 = getelementptr inbounds nuw i8, ptr %0, i64 24
  tail call void @llvm.memset.p0.i64(ptr noundef nonnull align 8 dereferenceable(24) %0, i8 0, i64 24, i1 false)
  tail call void @_ZN5draco13DecoderBuffer10BitDecoderC1Ev(ptr noundef nonnull align 8 dereferenceable(24) %2)
  %3 = getelementptr inbounds nuw i8, ptr %0, i64 48
  store i8 0, ptr %3, align 8, !tbaa !3
  %4 = getelementptr inbounds nuw i8, ptr %0, i64 50
  store i16 0, ptr %4, align 2, !tbaa !13
  ret void
}